ccopy_reg
_reconstructor
p1
(cpitz.bag
Project
p2
c__builtin__
list
p3
(lp4
g1
(cpitz.entity
Status
p5
c__builtin__
dict
p6
(dp7
S'pscore'
p8
I4
sS'frag'
p9
S'f1f117'
p10
sS'attached_files'
p11
(lp12
sS'uuid'
p13
g1
(cuuid
UUID
p14
c__builtin__
object
p15
NtRp16
(dp17
S'int'
p18
L321595763756679906511525357735930370197L
sbsS'title'
p19
S'finished'
p20
sS'modified_time'
p21
cdatetime
datetime
p22
(S'\x07\xd9\x0c\x1f\x0e\x11\x0f\x06ae'
tRp23
sS'created_time'
p24
g23
sS'type'
p25
S'status'
p26
sS'yaml_file_saved'
p27
g22
(S'\x07\xd9\x0c\x1f\x0e\x11\x10\x056\x18'
tRp28
sS'description'
p29
S''
stRp30
(dp31
g8
I4
sg9
g10
sg11
(lp32
sg13
g16
sg19
g20
sg21
g23
sg24
g23
sg25
g26
sg27
g28
sg29
S''
sbag1
(g5
g6
(dp33
g8
I3
sg9
S'91f405'
p34
sg11
(lp35
sg13
g1
(g14
g15
NtRp36
(dp37
g18
L194005085156847378912130733047189075895L
sbsg19
S'started'
p38
sg21
g22
(S'\x07\xd9\x0c\x1f\x0e\x11\x0f\x06\\\xc0'
tRp39
sg24
g39
sg25
S'status'
p40
sg27
g22
(S'\x07\xd9\x0c\x1f\x0e\x11\x10\x05@?'
tRp41
sg29
S''
stRp42
(dp43
g8
I3
sg9
g34
sg11
(lp44
sg13
g36
sg19
g38
sg21
g39
sg24
g39
sg25
g40
sg27
g41
sg29
S''
sbag1
(g5
g6
(dp45
g8
I2
sg9
S'4c8c26'
p46
sg11
(lp47
sg13
g1
(g14
g15
NtRp48
(dp49
g18
L101749039311903296915554634429662702246L
sbsg19
S'unstarted'
p50
sg21
g22
(S'\x07\xd9\x0c\x1f\x0e\x11\x0f\x06`R'
tRp51
sg24
g51
sg25
S'status'
p52
sg27
g22
(S'\x07\xd9\x0c\x1f\x0e\x11\x10\x05Iv'
tRp53
sg29
S''
stRp54
(dp55
g8
I2
sg9
g46
sg11
(lp56
sg13
g48
sg19
g50
sg21
g51
sg24
g51
sg25
g52
sg27
g53
sg29
S''
sbag1
(g5
g6
(dp57
g8
I1
sg9
S'cfbe34'
p58
sg11
(lp59
sg13
g1
(g14
g15
NtRp60
(dp61
g18
L276137787183570304630997701488290611568L
sbsg19
S'abandoned'
p62
sg21
g22
(S'\x07\xd9\x0c\x1f\x0e\x11\x0f\x06bn'
tRp63
sg24
g63
sg25
S'status'
p64
sg27
g22
(S'\x07\xd9\x0c\x1f\x0e\x11\x10\x05R\xb1'
tRp65
sg29
S''
stRp66
(dp67
g8
I1
sg9
g58
sg11
(lp68
sg13
g60
sg19
g62
sg21
g63
sg24
g63
sg25
g64
sg27
g65
sg29
S''
sbag1
(cpitz.entity
Person
p69
g6
(dp70
g8
I0
sg9
S'ca9561'
p71
sg11
(lp72
sg13
g1
(g14
g15
NtRp73
(dp74
g18
L269279678063379389838270119784199999021L
sbsg19
S'ereslibre'
p75
sg21
g22
(S'\x07\xd9\x0c\x1f\x0e\x11\x10\x054\xde'
tRp76
sg24
g76
sg25
S'person'
p77
sg27
g22
(S'\x07\xd9\x0c\x1f\x0e\x11\x10\x05[\xd8'
tRp78
sg29
S''
stRp79
(dp80
g8
I0
sg9
g71
sg11
(lp81
sg13
g73
sg19
g75
sg21
g76
sg24
g76
sg25
g77
sg27
g78
sg29
S''
sbatRp82
(dp83
g13
g1
(g14
g15
NtRp84
(dp85
g18
L158083970546696572993330195191230855166L
sbsS'_html_filename'
p86
Nsg19
S'ideallibrary'
p87
sS'_shell_mode'
p88
I00
sS'order_method'
p89
cpitz
by_pscore_and_milestone
p90
sS'pathname'
p91
S'/home/ereslibre/ideallibrary/pitzdir'
p92
sS'rerun_sort_after_append'
p93
I01
sS'entities_by_yaml_filename'
p94
(dp95
S'status-f1f11754-ff55-42fa-858e-8392b7fe1895.yaml'
p96
g30
sS'person-ca956129-83e4-40b2-8722-2f2a6583ce2d.yaml'
p97
g79
sS'status-4c8c26f4-1c7e-433d-962e-666e72ab2aa6.yaml'
p98
g54
sS'status-cfbe340c-36b7-4781-8351-16ad1188c170.yaml'
p99
g66
sS'status-91f40531-824b-4fe1-a254-66a0e19bf7b7.yaml'
p100
g42
ssS'entities_by_frag'
p101
(dp102
g71
g79
sg46
g54
sg58
g66
sg10
g30
sg34
g42
ssS'entities_by_uuid'
p103
(dp104
g16
g30
sg36
g42
sg60
g66
sg48
g54
sg73
g79
ssS'jinja_template'
p105
S'bag.html'
p106
sb.