ccopy_reg
_reconstructor
p1
(cpitz.bag
Project
p2
c__builtin__
list
p3
(lp4
g1
(cpitz.entity
Status
p5
c__builtin__
dict
p6
(dp7
S'pscore'
p8
I4
sS'frag'
p9
S'1b3234'
p10
sS'attached_files'
p11
(lp12
sS'uuid'
p13
g1
(cuuid
UUID
p14
c__builtin__
object
p15
NtRp16
(dp17
S'int'
p18
L36149831136251803455222649446847469290L
sbsS'title'
p19
S'finished'
p20
sS'modified_time'
p21
cdatetime
datetime
p22
(S'\x07\xd9\x0c\x1f\x0e\x0c6\x05\x0b\xb4'
tRp23
sS'created_time'
p24
g23
sS'type'
p25
S'status'
p26
sS'yaml_file_saved'
p27
g22
(S'\x07\xd9\x0c\x1f\x0e\x0c;\r$:'
tRp28
sS'description'
p29
S''
stRp30
(dp31
g8
I4
sg9
g10
sg11
(lp32
sg13
g16
sg19
g20
sg21
g23
sg24
g23
sg25
g26
sg27
g28
sg29
S''
sbag1
(g5
g6
(dp33
g8
I3
sg9
S'e3e19b'
p34
sg11
(lp35
sg13
g1
(g14
g15
NtRp36
(dp37
g18
L302906185321583418090590014659770496566L
sbsg19
S'started'
p38
sg21
g22
(S'\x07\xd9\x0c\x1f\x0e\x0c6\x05\x070'
tRp39
sg24
g39
sg25
S'status'
p40
sg27
g22
(S'\x07\xd9\x0c\x1f\x0e\x0c;\r.V'
tRp41
sg29
S''
stRp42
(dp43
g8
I3
sg9
g34
sg11
(lp44
sg13
g36
sg19
g38
sg21
g39
sg24
g39
sg25
g40
sg27
g41
sg29
S''
sbag1
(g5
g6
(dp45
g8
I2
sg9
S'cf68d5'
p46
sg11
(lp47
sg13
g1
(g14
g15
NtRp48
(dp49
g18
L275694517876305806028545456055999046410L
sbsg19
S'unstarted'
p50
sg21
g22
(S'\x07\xd9\x0c\x1f\x0e\x0c6\x05\n\x8f'
tRp51
sg24
g51
sg25
S'status'
p52
sg27
g22
(S'\x07\xd9\x0c\x1f\x0e\x0c;\r7n'
tRp53
sg29
S''
stRp54
(dp55
g8
I2
sg9
g46
sg11
(lp56
sg13
g48
sg19
g50
sg21
g51
sg24
g51
sg25
g52
sg27
g53
sg29
S''
sbag1
(g5
g6
(dp57
g8
I1
sg9
S'70d66b'
p58
sg11
(lp59
sg13
g1
(g14
g15
NtRp60
(dp61
g18
L149986876850836257849417632939955478939L
sbsg19
S'abandoned'
p62
sg21
g22
(S'\x07\xd9\x0c\x1f\x0e\x0c6\x05\x0c\xd1'
tRp63
sg24
g63
sg25
S'status'
p64
sg27
g22
(S'\x07\xd9\x0c\x1f\x0e\x0c;\r@\xa9'
tRp65
sg29
S''
stRp66
(dp67
g8
I1
sg9
g58
sg11
(lp68
sg13
g60
sg19
g62
sg21
g63
sg24
g63
sg25
g64
sg27
g65
sg29
S''
sbag1
(cpitz.entity
Person
p69
g6
(dp70
g8
I0
sg9
S'e3f793'
p71
sg11
(lp72
sg13
g1
(g14
g15
NtRp73
(dp74
g18
L303020238653436563410447406581420302915L
sbsg19
S'Rafael Fern\xc3\xa1ndez L\xc3\xb3pez'
p75
sg21
g22
(S'\x07\xd9\x0c\x1f\x0e\x0c;\r#\x04'
tRp76
sg24
g76
sg25
S'person'
p77
sg27
g22
(S'\x07\xd9\x0c\x1f\x0e\x0c;\rI\xc3'
tRp78
sg29
S''
stRp79
(dp80
g8
I0
sg9
g71
sg11
(lp81
sg13
g73
sg19
g75
sg21
g76
sg24
g76
sg25
g77
sg27
g78
sg29
S''
sbatRp82
(dp83
g13
g1
(g14
g15
NtRp84
(dp85
g18
L339692658856140871517464868130081854923L
sbsS'_html_filename'
p86
Nsg19
S'ideallibrary'
p87
sS'_shell_mode'
p88
I00
sS'order_method'
p89
cpitz
by_pscore_and_milestone
p90
sS'pathname'
p91
S'/home/ereslibre/ideallibrary/pitzdir'
p92
sS'rerun_sort_after_append'
p93
I01
sS'entities_by_yaml_filename'
p94
(dp95
S'status-e3e19bf8-cc18-4abd-bee5-6188294cb636.yaml'
p96
g42
sS'status-cf68d52e-fb62-466e-a485-0eebc618a30a.yaml'
p97
g54
sS'status-70d66bf7-19e6-4322-88fa-7107edd0619b.yaml'
p98
g66
sS'person-e3f7933c-3b22-4a5a-b400-f85e7fc2a243.yaml'
p99
g79
sS'status-1b323448-383d-477b-845b-8345b263d6ea.yaml'
p100
g30
ssS'entities_by_frag'
p101
(dp102
g34
g42
sg71
g79
sg10
g30
sg46
g54
sg58
g66
ssS'entities_by_uuid'
p103
(dp104
g48
g54
sg36
g42
sg16
g30
sg73
g79
sg60
g66
ssS'jinja_template'
p105
S'bag.html'
p106
sb.